#include <math.h>
#include <stdio.h>
#include <stdlib.h>
#include <string.h>

int main() {
char a[101];
int i,n,b,j;
gets(a);
n=strlen(a);
for(i=0;i<n;i++){
if(a[i]==' '){
if(a[i+1]==' '){
continue;}else{printf("%c",a[i]);}
}else{printf("%c",a[i]);}}
return 0;
}
